target datalayout = "e-m:e-p270:32:32-p271:32:32-p272:64:64-i64:64-i128:128-f80:128-n8:16:32:64-S128"
target triple = "x86_64-pc-linux-gnu"

@.str.6 = private unnamed_addr constant [20 x i8] c"%s[%d] (%hu - %hu)\0A\00", align 1
@.str.7 = private unnamed_addr constant [16 x i8] c"%s (%hu - %hu)\0A\00", align 1

; Function Attrs: mustprogress nounwind uwtable
define void @_Z6cmp_usP8_IO_FILEPKcitt(ptr noundef %0, ptr noundef %1, i32 noundef %2, i16 noundef zeroext %3, i16 noundef zeroext %4) #0 {
  %6 = alloca ptr, align 8
  %7 = alloca ptr, align 8
  %8 = alloca i32, align 4
  %9 = alloca i16, align 2
  %10 = alloca i16, align 2
  store ptr %0, ptr %6, align 8, !tbaa !4
  store ptr %1, ptr %7, align 8, !tbaa !9
  store i32 %2, ptr %8, align 4, !tbaa !11
  store i16 %3, ptr %9, align 2, !tbaa !15
  store i16 %4, ptr %10, align 2, !tbaa !15
  %11 = load i16, ptr %9, align 2, !tbaa !15
  %12 = zext i16 %11 to i32
  %13 = load i16, ptr %10, align 2, !tbaa !15
  %14 = zext i16 %13 to i32
  %15 = icmp ne i32 %12, %14
  br i1 %15, label %16, label %37

16:                                               ; preds = %5
  %17 = load i32, ptr %8, align 4, !tbaa !11
  %18 = icmp ne i32 %17, -1
  br i1 %18, label %19, label %28

19:                                               ; preds = %16
  %20 = load ptr, ptr %6, align 8, !tbaa !4
  %21 = load ptr, ptr %7, align 8, !tbaa !9
  %22 = load i32, ptr %8, align 4, !tbaa !11
  %23 = load i16, ptr %9, align 2, !tbaa !15
  %24 = zext i16 %23 to i32
  %25 = load i16, ptr %10, align 2, !tbaa !15
  %26 = zext i16 %25 to i32
  %27 = call i32 (ptr, ptr, ...) @fprintf(ptr noundef %20, ptr noundef @.str.6, ptr noundef %21, i32 noundef %22, i32 noundef %24, i32 noundef %26) #6
  br label %36

28:                                               ; preds = %16
  %29 = load ptr, ptr %6, align 8, !tbaa !4
  %30 = load ptr, ptr %7, align 8, !tbaa !9
  %31 = load i16, ptr %9, align 2, !tbaa !15
  %32 = zext i16 %31 to i32
  %33 = load i16, ptr %10, align 2, !tbaa !15
  %34 = zext i16 %33 to i32
  %35 = call i32 (ptr, ptr, ...) @fprintf(ptr noundef %29, ptr noundef @.str.7, ptr noundef %30, i32 noundef %32, i32 noundef %34) #6
  br label %36

36:                                               ; preds = %28, %19
  br label %37

37:                                               ; preds = %36, %5
  ret void
}