; Function Attrs: mustprogress nofree nounwind uwtable
define void @_Z6cmp_usP8_IO_FILEPKcitt(ptr noundef captures(none) %0, ptr noundef %1, i32 noundef %2, i16 noundef zeroext %3, i16 noundef zeroext %4) local_unnamed_addr #0 {
  %6 = zext i16 %3 to i32
  %7 = zext i16 %4 to i32
  %.not = icmp eq i16 %3, %4
  br i1 %.not, label %13, label %8

8:                                                ; preds = %5
  %.not13 = icmp eq i32 %2, -1
  br i1 %.not13, label %11, label %9

9:                                                ; preds = %8
  %10 = tail call i32 (ptr, ptr, ...) @fprintf(ptr noundef %0, ptr noundef nonnull @.str.6, ptr noundef %1, i32 noundef %2, i32 noundef %6, i32 noundef %7) #6
  br label %13

11:                                               ; preds = %8
  %12 = tail call i32 (ptr, ptr, ...) @fprintf(ptr noundef %0, ptr noundef nonnull @.str.7, ptr noundef %1, i32 noundef %6, i32 noundef %7) #6
  br label %13

13:                                               ; preds = %9, %11, %5
  ret void
}